(lp1
(dp2
S'S3_Pyr_fitness'
p3
cnumpy.core.multiarray
scalar
p4
(cnumpy
dtype
p5
(S'f8'
I0
I1
tRp6
(I3
S'<'
NNNI-1
I-1
I0
tbS'\x10\x88\x04\xdbl\xf7\xcc?'
tRp7
sS'text'
p8
(lp9
VHamilton said that one of his first priorities was to bolster law enforcement in the Cache River National Wildlife Refuge in northeast Arkansas, midway between Little Rock and Memphis, because of an expected influx of people wanting to see the bird.
p10
aVBased on Sparling's report, two other experts, Tim Gallagher of the Cornell Lab and Bobby Harrison of Oakwood College in Huntsville, Ala., went with Sparling into the bayou where the bird was seen.
p11
aVThe ivory-billed woodpecker is one of six North American bird species thought to have gone extinct since 1880.
p12
aVThe bird is hard to misidentify.
p13
asS'S3_Resp_fitness'
p14
g4
(g6
S'\xe6\x9d\n0V\xfd\xd7?'
tRp15
sS'JS_2_fitness'
p16
F0.62777880416655563
sS'ROUGE_L_fitness'
p17
F0.16751269035532995
sS'ROUGE_2_fitness'
p18
F0.087179487179487175
sS'ROUGE_WE_fitness'
p19
F0.17435897435897435
sa(dp20
g3
g4
(g6
S'\x04\xfe\xd2\xb2\x81N\xc8?'
tRp21
sg8
(lp22
V"It's like a funeral shroud has been pulled back, giving us a glimpse of a living bird, rising Lazarus-like from the grave."
p23
aVThe team of researchers that obtained conclusive video of an ivory-bill made several more sightings and announced their findings Thursday in the journal Science.
p24
aVReports of sightings have appeared sporadically since the last confirmed appearance of the bird in 1944, but researchers generally have dismissed the reports as the overenthusiastic imaginings of amateurs.
p25
aV"It's incredible news," said Steve R. Runnels, president of the American Birding Association.
p26
aVSimultaneously, they shouted, "Ivory bill!"
p27
aVUnbelievable!
p28
aV``Incredible!
p29
asg14
g4
(g6
S'v_\x13u!\xbe\xd6?'
tRp30
sg16
F0.6681869429775924
sg17
F0.13959390862944163
sg18
F0.053846153846153849
sg19
F0.12564102564102564
sa(dp31
g3
g4
(g6
S'\x10\x88\x04\xdbl\xf7\xcc?'
tRp32
sg8
(lp33
g10
ag11
ag12
ag13
asg14
g4
(g6
S'\xe6\x9d\n0V\xfd\xd7?'
tRp34
sg16
F0.62777880416655563
sg17
F0.16751269035532995
sg18
F0.087179487179487175
sg19
F0.17435897435897435
sa(dp35
g3
g4
(g6
S'\x04\xfe\xd2\xb2\x81N\xc8?'
tRp36
sg8
(lp37
g23
ag24
ag25
ag26
ag27
ag28
ag29
asg14
g4
(g6
S'v_\x13u!\xbe\xd6?'
tRp38
sg16
F0.6681869429775924
sg17
F0.13959390862944163
sg18
F0.053846153846153849
sg19
F0.12564102564102564
sa(dp39
g3
g4
(g6
S'\x10\x88\x04\xdbl\xf7\xcc?'
tRp40
sg8
(lp41
g10
ag11
ag12
ag13
asg14
g4
(g6
S'\xe6\x9d\n0V\xfd\xd7?'
tRp42
sg16
F0.62777880416655563
sg17
F0.16751269035532995
sg18
F0.087179487179487175
sg19
F0.17435897435897435
sa(dp43
g3
g4
(g6
S'\x04\xfe\xd2\xb2\x81N\xc8?'
tRp44
sg8
(lp45
g23
ag24
ag25
ag26
ag27
ag28
ag29
asg14
g4
(g6
S'v_\x13u!\xbe\xd6?'
tRp46
sg16
F0.6681869429775924
sg17
F0.13959390862944163
sg18
F0.053846153846153849
sg19
F0.12564102564102564
sa(dp47
g3
g4
(g6
S'\x04\xfe\xd2\xb2\x81N\xc8?'
tRp48
sg8
(lp49
g23
ag24
ag25
ag26
ag27
ag28
ag29
asg14
g4
(g6
S'v_\x13u!\xbe\xd6?'
tRp50
sg16
F0.6681869429775924
sg17
F0.13959390862944163
sg18
F0.053846153846153849
sg19
F0.12564102564102564
sa(dp51
g3
g4
(g6
S'\x10\x88\x04\xdbl\xf7\xcc?'
tRp52
sg8
(lp53
g10
ag11
ag12
ag13
asg14
g4
(g6
S'\xe6\x9d\n0V\xfd\xd7?'
tRp54
sg16
F0.62777880416655563
sg17
F0.16751269035532995
sg18
F0.087179487179487175
sg19
F0.17435897435897435
sa(dp55
g3
g4
(g6
S'\x10\x88\x04\xdbl\xf7\xcc?'
tRp56
sg8
(lp57
g10
ag11
ag12
ag13
asg14
g4
(g6
S'\xe6\x9d\n0V\xfd\xd7?'
tRp58
sg16
F0.62777880416655563
sg17
F0.16751269035532995
sg18
F0.087179487179487175
sg19
F0.17435897435897435
sa(dp59
g3
g4
(g6
S'\x04\xfe\xd2\xb2\x81N\xc8?'
tRp60
sg8
(lp61
g23
ag24
ag25
ag26
ag27
ag28
ag29
asg14
g4
(g6
S'v_\x13u!\xbe\xd6?'
tRp62
sg16
F0.6681869429775924
sg17
F0.13959390862944163
sg18
F0.053846153846153849
sg19
F0.12564102564102564
sa(dp63
g3
g4
(g6
S'\x10\x88\x04\xdbl\xf7\xcc?'
tRp64
sg8
(lp65
g10
ag11
ag12
ag13
asg14
g4
(g6
S'\xe6\x9d\n0V\xfd\xd7?'
tRp66
sg16
F0.62777880416655563
sg17
F0.16751269035532995
sg18
F0.087179487179487175
sg19
F0.17435897435897435
sa(dp67
g3
g4
(g6
S'\x04\xfe\xd2\xb2\x81N\xc8?'
tRp68
sg8
(lp69
g23
ag24
ag25
ag26
ag27
ag28
ag29
asg14
g4
(g6
S'v_\x13u!\xbe\xd6?'
tRp70
sg16
F0.6681869429775924
sg17
F0.13959390862944163
sg18
F0.053846153846153849
sg19
F0.12564102564102564
sa.